target datalayout = "e-m:e-p270:32:32-p271:32:32-p272:64:64-i64:64-i128:128-f80:128-n8:16:32:64-S128"
target triple = "x86_64-pc-linux-gnu"

@.str.1 = private unnamed_addr constant [7 x i8] c"json.c\00", align 1
@.str.3 = private unnamed_addr constant [36 x i8] c"could not determine input data type\00", align 1
@__func__.add_json = private unnamed_addr constant [9 x i8] c"add_json\00", align 1

; Function Attrs: nounwind uwtable
define internal void @add_json(i64 noundef %0, i1 noundef zeroext %1, ptr noundef %2, i32 noundef %3, i1 noundef zeroext %4) #0 {
  %6 = alloca i64, align 8
  %7 = alloca i8, align 1
  %8 = alloca ptr, align 8
  %9 = alloca i32, align 4
  %10 = alloca i8, align 1
  %11 = alloca i32, align 4
  %12 = alloca i32, align 4
  store i64 %0, ptr %6, align 8
  %13 = zext i1 %1 to i8
  store i8 %13, ptr %7, align 1
  store ptr %2, ptr %8, align 8
  store i32 %3, ptr %9, align 4
  %14 = zext i1 %4 to i8
  store i8 %14, ptr %10, align 1
  call void @llvm.lifetime.start.p0(i64 4, ptr %11) #14
  call void @llvm.lifetime.start.p0(i64 4, ptr %12) #14
  %15 = load i32, ptr %9, align 4
  %16 = icmp eq i32 %15, 0
  br i1 %16, label %17, label %29

17:                                               ; preds = %5
  br label %18

18:                                               ; preds = %17
  br i1 true, label %19, label %21

19:                                               ; preds = %18
  %20 = call zeroext i1 @errstart_cold(i32 noundef 21, ptr noundef null) #15
  br i1 %20, label %23, label %26

21:                                               ; preds = %18
  %22 = call zeroext i1 @errstart(i32 noundef 21, ptr noundef null)
  br i1 %22, label %23, label %26

23:                                               ; preds = %21, %19
  %24 = call i32 @errcode(i32 noundef 50856066)
  %25 = call i32 (ptr, ...) @errmsg(ptr noundef @.str.3)
  call void @errfinish(ptr noundef @.str.1, i32 noundef 611, ptr noundef @__func__.add_json)
  br label %26

26:                                               ; preds = %23, %21, %19
  unreachable

27:                                               ; No predecessors!
  br label %28

28:                                               ; preds = %27
  br label %29

29:                                               ; preds = %28, %5
  %30 = load i8, ptr %7, align 1, !range !4, !noundef !5
  %31 = trunc i8 %30 to i1
  br i1 %31, label %32, label %33

32:                                               ; preds = %29
  store i32 0, ptr %11, align 4
  store i32 0, ptr %12, align 4
  br label %35

33:                                               ; preds = %29
  %34 = load i32, ptr %9, align 4
  call void @json_categorize_type(i32 noundef %34, i1 noundef zeroext false, ptr noundef %11, ptr noundef %12)
  br label %35

35:                                               ; preds = %33, %32
  %36 = load i64, ptr %6, align 8
  %37 = load i8, ptr %7, align 1, !range !4, !noundef !5
  %38 = trunc i8 %37 to i1
  %39 = load ptr, ptr %8, align 8
  %40 = load i32, ptr %11, align 4
  %41 = load i32, ptr %12, align 4
  %42 = load i8, ptr %10, align 1, !range !4, !noundef !5
  %43 = trunc i8 %42 to i1
  call void @datum_to_json_internal(i64 noundef %36, i1 noundef zeroext %38, ptr noundef %39, i32 noundef %40, i32 noundef %41, i1 noundef zeroext %43)
  call void @llvm.lifetime.end.p0(i64 4, ptr %12) #14
  call void @llvm.lifetime.end.p0(i64 4, ptr %11) #14
  ret void
}