; Function Attrs: nounwind uwtable
define internal fastcc void @add_json(i64 noundef %0, i1 noundef zeroext %1, ptr noundef %2, i32 noundef %3, i1 noundef zeroext %4) unnamed_addr #0 {
  %6 = alloca i32, align 4
  %7 = alloca i32, align 4
  call void @llvm.lifetime.start.p0(i64 4, ptr nonnull %6) #10
  call void @llvm.lifetime.start.p0(i64 4, ptr nonnull %7) #10
  %8 = icmp eq i32 %3, 0
  br i1 %8, label %9, label %13

9:                                                ; preds = %5
  %10 = tail call zeroext i1 @errstart_cold(i32 noundef 21, ptr noundef null) #11
  tail call void @llvm.assume(i1 %10)
  %11 = tail call i32 @errcode(i32 noundef 50856066) #10
  %12 = tail call i32 (ptr, ...) @errmsg(ptr noundef nonnull @.str.3) #10
  tail call void @errfinish(ptr noundef nonnull @.str.1, i32 noundef 611, ptr noundef nonnull @__func__.add_json) #10
  unreachable

13:                                               ; preds = %5
  br i1 %1, label %14, label %15

14:                                               ; preds = %13
  store i32 0, ptr %6, align 4
  store i32 0, ptr %7, align 4
  br label %16

15:                                               ; preds = %13
  call void @json_categorize_type(i32 noundef %3, i1 noundef zeroext false, ptr noundef nonnull %6, ptr noundef nonnull %7) #10
  %.pre = load i32, ptr %6, align 4
  %.pre6 = load i32, ptr %7, align 4
  br label %16

16:                                               ; preds = %15, %14
  %17 = phi i32 [ %.pre6, %15 ], [ 0, %14 ]
  %18 = phi i32 [ %.pre, %15 ], [ 0, %14 ]
  call fastcc void @datum_to_json_internal(i64 noundef %0, i1 noundef zeroext %1, ptr noundef %2, i32 noundef %18, i32 noundef %17, i1 noundef zeroext %4)
  call void @llvm.lifetime.end.p0(i64 4, ptr nonnull %7) #10
  call void @llvm.lifetime.end.p0(i64 4, ptr nonnull %6) #10
  ret void
}